	.file	"mpi_matrix_base.c"
	.intel_syntax noprefix
# GNU C17 (Ubuntu 9.4.0-1ubuntu1~20.04.2) version 9.4.0 (x86_64-linux-gnu)
#	compiled by GNU C version 9.4.0, GMP version 6.2.0, MPFR version 4.0.2, MPC version 1.1.0, isl version isl-0.22.1-GMP

# GGC heuristics: --param ggc-min-expand=100 --param ggc-min-heapsize=131072
# options passed:  -I /home/haibin/intel/oneapi/mpi/2021.15/include
# -imultiarch x86_64-linux-gnu mpi_matrix_base.c -masm=intel -mtune=generic
# -march=x86-64 -auxbase-strip run_asm -g -fverbose-asm
# -fasynchronous-unwind-tables -fstack-protector-strong -Wformat
# -Wformat-security -fstack-clash-protection -fcf-protection
# options enabled:  -fPIC -fPIE -faggressive-loop-optimizations
# -fassume-phsa -fasynchronous-unwind-tables -fauto-inc-dec -fcommon
# -fdelete-null-pointer-checks -fdwarf2-cfi-asm -fearly-inlining
# -feliminate-unused-debug-types -ffp-int-builtin-inexact -ffunction-cse
# -fgcse-lm -fgnu-runtime -fgnu-unique -fident -finline-atomics
# -fipa-stack-alignment -fira-hoist-pressure -fira-share-save-slots
# -fira-share-spill-slots -fivopts -fkeep-static-consts
# -fleading-underscore -flifetime-dse -flto-odr-type-merging -fmath-errno
# -fmerge-debug-strings -fpeephole -fplt -fprefetch-loop-arrays
# -freg-struct-return -fsched-critical-path-heuristic
# -fsched-dep-count-heuristic -fsched-group-heuristic -fsched-interblock
# -fsched-last-insn-heuristic -fsched-rank-heuristic -fsched-spec
# -fsched-spec-insn-heuristic -fsched-stalled-insns-dep -fschedule-fusion
# -fsemantic-interposition -fshow-column -fshrink-wrap-separate
# -fsigned-zeros -fsplit-ivs-in-unroller -fssa-backprop
# -fstack-clash-protection -fstack-protector-strong -fstdarg-opt
# -fstrict-volatile-bitfields -fsync-libcalls -ftrapping-math -ftree-cselim
# -ftree-forwprop -ftree-loop-if-convert -ftree-loop-im -ftree-loop-ivcanon
# -ftree-loop-optimize -ftree-parallelize-loops= -ftree-phiprop
# -ftree-reassoc -ftree-scev-cprop -funit-at-a-time -funwind-tables
# -fverbose-asm -fzero-initialized-in-bss -m128bit-long-double -m64 -m80387
# -malign-stringops -mavx256-split-unaligned-load
# -mavx256-split-unaligned-store -mfancy-math-387 -mfp-ret-in-387 -mfxsr
# -mglibc -mieee-fp -mlong-double-80 -mmmx -mno-sse4 -mpush-args -mred-zone
# -msse -msse2 -mstv -mtls-direct-seg-refs -mvzeroupper

	.text
.Ltext0:
	.globl	brute_force_matmul
	.type	brute_force_matmul, @function
brute_force_matmul:
.LFB6:
	.file 1 "mpi_matrix_base.c"
	.loc 1 8 57
	.cfi_startproc
	endbr64	
	push	rbp	#
	.cfi_def_cfa_offset 16
	.cfi_offset 6, -16
	mov	rbp, rsp	#,
	.cfi_def_cfa_register 6
	mov	QWORD PTR -24[rbp], rdi	# mat1, mat1
	mov	QWORD PTR -32[rbp], rsi	# mat2, mat2
	mov	QWORD PTR -40[rbp], rdx	# res, res
.LBB2:
# mpi_matrix_base.c:10:     for (int i = 0; i < MAT_SIZE; ++i) {
	.loc 1 10 14
	mov	DWORD PTR -12[rbp], 0	# i,
# mpi_matrix_base.c:10:     for (int i = 0; i < MAT_SIZE; ++i) {
	.loc 1 10 5
	jmp	.L2	#
.L7:
.LBB3:
# mpi_matrix_base.c:11:         for (int j = 0; j < MAT_SIZE; ++j) {
	.loc 1 11 18
	mov	DWORD PTR -8[rbp], 0	# j,
# mpi_matrix_base.c:11:         for (int j = 0; j < MAT_SIZE; ++j) {
	.loc 1 11 9
	jmp	.L3	#
.L6:
# mpi_matrix_base.c:12:             res[i][j] = 0;
	.loc 1 12 16
	mov	eax, DWORD PTR -12[rbp]	# tmp102, i
	cdqe
	imul	rdx, rax, 4000	# _2, _1,
	mov	rax, QWORD PTR -40[rbp]	# tmp103, res
	add	rdx, rax	# _3, tmp103
# mpi_matrix_base.c:12:             res[i][j] = 0;
	.loc 1 12 23
	mov	eax, DWORD PTR -8[rbp]	# tmp105, j
	cdqe
	pxor	xmm0, xmm0	# tmp106
	movsd	QWORD PTR [rdx+rax*8], xmm0	# *_3, tmp106
.LBB4:
# mpi_matrix_base.c:13:             for (int k = 0; k < MAT_SIZE; ++k) {
	.loc 1 13 22
	mov	DWORD PTR -4[rbp], 0	# k,
# mpi_matrix_base.c:13:             for (int k = 0; k < MAT_SIZE; ++k) {
	.loc 1 13 13
	jmp	.L4	#
.L5:
# mpi_matrix_base.c:14:                 res[i][j] += mat1[i][k] * mat2[k][j];
	.loc 1 14 27 discriminator 3
	mov	eax, DWORD PTR -12[rbp]	# tmp107, i
	cdqe
	imul	rdx, rax, 4000	# _5, _4,
	mov	rax, QWORD PTR -40[rbp]	# tmp108, res
	add	rdx, rax	# _6, tmp108
	mov	eax, DWORD PTR -8[rbp]	# tmp110, j
	cdqe
	movsd	xmm1, QWORD PTR [rdx+rax*8]	# _7, *_6
# mpi_matrix_base.c:14:                 res[i][j] += mat1[i][k] * mat2[k][j];
	.loc 1 14 34 discriminator 3
	mov	eax, DWORD PTR -12[rbp]	# tmp111, i
	cdqe
	imul	rdx, rax, 4000	# _9, _8,
	mov	rax, QWORD PTR -24[rbp]	# tmp112, mat1
	add	rdx, rax	# _10, tmp112
# mpi_matrix_base.c:14:                 res[i][j] += mat1[i][k] * mat2[k][j];
	.loc 1 14 37 discriminator 3
	mov	eax, DWORD PTR -4[rbp]	# tmp114, k
	cdqe
	movsd	xmm2, QWORD PTR [rdx+rax*8]	# _11, *_10
# mpi_matrix_base.c:14:                 res[i][j] += mat1[i][k] * mat2[k][j];
	.loc 1 14 47 discriminator 3
	mov	eax, DWORD PTR -4[rbp]	# tmp115, k
	cdqe
	imul	rdx, rax, 4000	# _13, _12,
	mov	rax, QWORD PTR -32[rbp]	# tmp116, mat2
	add	rdx, rax	# _14, tmp116
# mpi_matrix_base.c:14:                 res[i][j] += mat1[i][k] * mat2[k][j];
	.loc 1 14 50 discriminator 3
	mov	eax, DWORD PTR -8[rbp]	# tmp118, j
	cdqe
	movsd	xmm0, QWORD PTR [rdx+rax*8]	# _15, *_14
# mpi_matrix_base.c:14:                 res[i][j] += mat1[i][k] * mat2[k][j];
	.loc 1 14 41 discriminator 3
	mulsd	xmm0, xmm2	# _16, _11
# mpi_matrix_base.c:14:                 res[i][j] += mat1[i][k] * mat2[k][j];
	.loc 1 14 27 discriminator 3
	mov	eax, DWORD PTR -12[rbp]	# tmp119, i
	cdqe
	imul	rdx, rax, 4000	# _18, _17,
	mov	rax, QWORD PTR -40[rbp]	# tmp120, res
	add	rdx, rax	# _19, tmp120
	addsd	xmm0, xmm1	# _20, _7
	mov	eax, DWORD PTR -8[rbp]	# tmp122, j
	cdqe
	movsd	QWORD PTR [rdx+rax*8], xmm0	# *_19, _20
# mpi_matrix_base.c:13:             for (int k = 0; k < MAT_SIZE; ++k) {
	.loc 1 13 43 discriminator 3
	add	DWORD PTR -4[rbp], 1	# k,
.L4:
# mpi_matrix_base.c:13:             for (int k = 0; k < MAT_SIZE; ++k) {
	.loc 1 13 13 discriminator 1
	cmp	DWORD PTR -4[rbp], 499	# k,
	jle	.L5	#,
.LBE4:
# mpi_matrix_base.c:11:         for (int j = 0; j < MAT_SIZE; ++j) {
	.loc 1 11 39 discriminator 2
	add	DWORD PTR -8[rbp], 1	# j,
.L3:
# mpi_matrix_base.c:11:         for (int j = 0; j < MAT_SIZE; ++j) {
	.loc 1 11 9 discriminator 1
	cmp	DWORD PTR -8[rbp], 499	# j,
	jle	.L6	#,
.LBE3:
# mpi_matrix_base.c:10:     for (int i = 0; i < MAT_SIZE; ++i) {
	.loc 1 10 35 discriminator 2
	add	DWORD PTR -12[rbp], 1	# i,
.L2:
# mpi_matrix_base.c:10:     for (int i = 0; i < MAT_SIZE; ++i) {
	.loc 1 10 5 discriminator 1
	cmp	DWORD PTR -12[rbp], 499	# i,
	jle	.L7	#,
.LBE2:
# mpi_matrix_base.c:18: }
	.loc 1 18 1
	nop	
	nop	
	pop	rbp	#
	.cfi_def_cfa 7, 8
	ret	
	.cfi_endproc
.LFE6:
	.size	brute_force_matmul, .-brute_force_matmul
	.globl	checkRes
	.type	checkRes, @function
checkRes:
.LFB7:
	.loc 1 20 93
	.cfi_startproc
	endbr64	
	push	rbp	#
	.cfi_def_cfa_offset 16
	.cfi_offset 6, -16
	mov	rbp, rsp	#,
	.cfi_def_cfa_register 6
	mov	QWORD PTR -24[rbp], rdi	# target, target
	mov	QWORD PTR -32[rbp], rsi	# res, res
.LBB5:
# mpi_matrix_base.c:22:    for (int i = 0; i < MAT_SIZE; ++i) {
	.loc 1 22 13
	mov	DWORD PTR -8[rbp], 0	# i,
# mpi_matrix_base.c:22:    for (int i = 0; i < MAT_SIZE; ++i) {
	.loc 1 22 4
	jmp	.L9	#
.L15:
.LBB6:
# mpi_matrix_base.c:23:       for (int j = 0; j < MAT_SIZE; ++j) {
	.loc 1 23 16
	mov	DWORD PTR -4[rbp], 0	# j,
# mpi_matrix_base.c:23:       for (int j = 0; j < MAT_SIZE; ++j) {
	.loc 1 23 7
	jmp	.L10	#
.L14:
# mpi_matrix_base.c:24:          if (res[i][j] != target[i][j]) {
	.loc 1 24 17
	mov	eax, DWORD PTR -8[rbp]	# tmp92, i
	cdqe
	imul	rdx, rax, 4000	# _2, _1,
	mov	rax, QWORD PTR -32[rbp]	# tmp93, res
	add	rdx, rax	# _3, tmp93
# mpi_matrix_base.c:24:          if (res[i][j] != target[i][j]) {
	.loc 1 24 20
	mov	eax, DWORD PTR -4[rbp]	# tmp95, j
	cdqe
	movsd	xmm0, QWORD PTR [rdx+rax*8]	# _4, *_3
# mpi_matrix_base.c:24:          if (res[i][j] != target[i][j]) {
	.loc 1 24 33
	mov	eax, DWORD PTR -8[rbp]	# tmp96, i
	cdqe
	imul	rdx, rax, 4000	# _6, _5,
	mov	rax, QWORD PTR -24[rbp]	# tmp97, target
	add	rdx, rax	# _7, tmp97
# mpi_matrix_base.c:24:          if (res[i][j] != target[i][j]) {
	.loc 1 24 36
	mov	eax, DWORD PTR -4[rbp]	# tmp99, j
	cdqe
	movsd	xmm1, QWORD PTR [rdx+rax*8]	# _8, *_7
# mpi_matrix_base.c:24:          if (res[i][j] != target[i][j]) {
	.loc 1 24 13
	ucomisd	xmm0, xmm1	# _4, _8
	jp	.L16	#,
	ucomisd	xmm0, xmm1	# _4, _8
	je	.L17	#,
.L16:
# mpi_matrix_base.c:25:             return 0;
	.loc 1 25 20
	mov	eax, 0	# _11,
	jmp	.L13	#
.L17:
# mpi_matrix_base.c:23:       for (int j = 0; j < MAT_SIZE; ++j) {
	.loc 1 23 37 discriminator 2
	add	DWORD PTR -4[rbp], 1	# j,
.L10:
# mpi_matrix_base.c:23:       for (int j = 0; j < MAT_SIZE; ++j) {
	.loc 1 23 7 discriminator 1
	cmp	DWORD PTR -4[rbp], 499	# j,
	jle	.L14	#,
.LBE6:
# mpi_matrix_base.c:22:    for (int i = 0; i < MAT_SIZE; ++i) {
	.loc 1 22 34 discriminator 2
	add	DWORD PTR -8[rbp], 1	# i,
.L9:
# mpi_matrix_base.c:22:    for (int i = 0; i < MAT_SIZE; ++i) {
	.loc 1 22 4 discriminator 1
	cmp	DWORD PTR -8[rbp], 499	# i,
	jle	.L15	#,
.LBE5:
# mpi_matrix_base.c:29:    return 1;
	.loc 1 29 11
	mov	eax, 1	# _11,
.L13:
# mpi_matrix_base.c:30: }
	.loc 1 30 1
	pop	rbp	#
	.cfi_def_cfa 7, 8
	ret	
	.cfi_endproc
.LFE7:
	.size	checkRes, .-checkRes
	.section	.rodata
.LC1:
	.string	"Done in %f seconds.\n"
	.align 8
.LC2:
	.string	"Brute force done in %f seconds.\n"
.LC3:
	.string	"ERROR: mismatch!"
.LC4:
	.string	"Result is correct."
	.text
	.globl	main
	.type	main, @function
main:
.LFB8:
	.loc 1 33 1
	.cfi_startproc
	endbr64	
	push	rbp	#
	.cfi_def_cfa_offset 16
	.cfi_offset 6, -16
	mov	rbp, rsp	#,
	.cfi_def_cfa_register 6
	lea	r11, -7999488[rsp]	#,
.LPSRL0:
	sub	rsp, 4096	#,
	or	DWORD PTR [rsp], 0	#,
	cmp	rsp, r11	#,
	jne	.LPSRL0
	sub	rsp, 720	#,
	mov	DWORD PTR -8000196[rbp], edi	# argc, argc
	mov	QWORD PTR -8000208[rbp], rsi	# argv, argv
# mpi_matrix_base.c:33: {
	.loc 1 33 1
	mov	rax, QWORD PTR fs:40	# tmp344, MEM[(<address-space-1> long unsigned int *)40B]
	mov	QWORD PTR -8[rbp], rax	# D.11035, tmp344
	xor	eax, eax	# tmp344
# mpi_matrix_base.c:41:    MPI_Init(&argc, &argv);
	.loc 1 41 4
	lea	rdx, -8000208[rbp]	# tmp184,
	lea	rax, -8000196[rbp]	# tmp185,
	mov	rsi, rdx	#, tmp184
	mov	rdi, rax	#, tmp185
	call	MPI_Init@PLT	#
# mpi_matrix_base.c:42:    MPI_Comm_rank(MPI_COMM_WORLD, &rank);
	.loc 1 42 4
	lea	rax, -8000180[rbp]	# tmp186,
	mov	rsi, rax	#, tmp186
	mov	edi, 1140850688	#,
	call	MPI_Comm_rank@PLT	#
# mpi_matrix_base.c:43:    MPI_Comm_size(MPI_COMM_WORLD, &mpiSize);
	.loc 1 43 4
	lea	rax, -8000176[rbp]	# tmp187,
	mov	rsi, rax	#, tmp187
	mov	edi, 1140850688	#,
	call	MPI_Comm_size@PLT	#
# mpi_matrix_base.c:45:    int *sendcounts = malloc(mpiSize * sizeof(int));
	.loc 1 45 22
	mov	eax, DWORD PTR -8000176[rbp]	# mpiSize.0_1, mpiSize
	cdqe
	sal	rax, 2	# _3,
	mov	rdi, rax	#, _3
	call	malloc@PLT	#
	mov	QWORD PTR -8000096[rbp], rax	# sendcounts, tmp188
# mpi_matrix_base.c:46:    int *displs     = malloc(mpiSize * sizeof(int));
	.loc 1 46 22
	mov	eax, DWORD PTR -8000176[rbp]	# mpiSize.1_4, mpiSize
	cdqe
	sal	rax, 2	# _6,
	mov	rdi, rax	#, _6
	call	malloc@PLT	#
	mov	QWORD PTR -8000088[rbp], rax	# displs, tmp189
# mpi_matrix_base.c:48:    int myrows = 0; // rows of matrix A assigned to each process
	.loc 1 48 8
	mov	DWORD PTR -8000124[rbp], 0	# myrows,
# mpi_matrix_base.c:51:    if (rank == 0) {
	.loc 1 51 13
	mov	eax, DWORD PTR -8000180[rbp]	# rank.2_7, rank
# mpi_matrix_base.c:51:    if (rank == 0) {
	.loc 1 51 7
	test	eax, eax	# rank.2_7
	jne	.L19	#,
.LBB7:
.LBB8:
# mpi_matrix_base.c:53:       for (int i = 0; i < MAT_SIZE; i++) {
	.loc 1 53 16
	mov	DWORD PTR -8000172[rbp], 0	# i,
# mpi_matrix_base.c:53:       for (int i = 0; i < MAT_SIZE; i++) {
	.loc 1 53 7
	jmp	.L20	#
.L23:
.LBB9:
# mpi_matrix_base.c:54:          for (int j = 0; j < MAT_SIZE; j++) {
	.loc 1 54 19
	mov	DWORD PTR -8000168[rbp], 0	# j,
# mpi_matrix_base.c:54:          for (int j = 0; j < MAT_SIZE; j++) {
	.loc 1 54 10
	jmp	.L21	#
.L22:
# mpi_matrix_base.c:55:                 a[i][j] = i + j;
	.loc 1 55 29 discriminator 3
	mov	edx, DWORD PTR -8000172[rbp]	# tmp190, i
	mov	eax, DWORD PTR -8000168[rbp]	# tmp191, j
	add	eax, edx	# _8, tmp190
# mpi_matrix_base.c:55:                 a[i][j] = i + j;
	.loc 1 55 25 discriminator 3
	cvtsi2sd	xmm0, eax	# _9, _8
	mov	eax, DWORD PTR -8000168[rbp]	# tmp193, j
	cdqe
	mov	edx, DWORD PTR -8000172[rbp]	# tmp195, i
	movsx	rdx, edx	# tmp194, tmp195
	imul	rdx, rdx, 500	# tmp196, tmp194,
	add	rax, rdx	# tmp197, tmp196
	movsd	QWORD PTR -8000016[rbp+rax*8], xmm0	# a, _9
# mpi_matrix_base.c:56:                 b[i][j] = i * j;
	.loc 1 56 29 discriminator 3
	mov	eax, DWORD PTR -8000172[rbp]	# tmp198, i
	imul	eax, DWORD PTR -8000168[rbp]	# _10, j
# mpi_matrix_base.c:56:                 b[i][j] = i * j;
	.loc 1 56 25 discriminator 3
	cvtsi2sd	xmm0, eax	# _11, _10
	mov	eax, DWORD PTR -8000168[rbp]	# tmp200, j
	cdqe
	mov	edx, DWORD PTR -8000172[rbp]	# tmp202, i
	movsx	rdx, edx	# tmp201, tmp202
	imul	rdx, rdx, 500	# tmp203, tmp201,
	add	rax, rdx	# tmp204, tmp203
	movsd	QWORD PTR -6000016[rbp+rax*8], xmm0	# b, _11
# mpi_matrix_base.c:57:                 c[i][j] = 0.0;
	.loc 1 57 25 discriminator 3
	mov	eax, DWORD PTR -8000168[rbp]	# tmp206, j
	cdqe
	mov	edx, DWORD PTR -8000172[rbp]	# tmp208, i
	movsx	rdx, edx	# tmp207, tmp208
	imul	rdx, rdx, 500	# tmp209, tmp207,
	add	rax, rdx	# tmp210, tmp209
	pxor	xmm0, xmm0	# tmp211
	movsd	QWORD PTR -4000016[rbp+rax*8], xmm0	# c, tmp211
# mpi_matrix_base.c:54:          for (int j = 0; j < MAT_SIZE; j++) {
	.loc 1 54 41 discriminator 3
	add	DWORD PTR -8000168[rbp], 1	# j,
.L21:
# mpi_matrix_base.c:54:          for (int j = 0; j < MAT_SIZE; j++) {
	.loc 1 54 10 discriminator 1
	cmp	DWORD PTR -8000168[rbp], 499	# j,
	jle	.L22	#,
.LBE9:
# mpi_matrix_base.c:53:       for (int i = 0; i < MAT_SIZE; i++) {
	.loc 1 53 38 discriminator 2
	add	DWORD PTR -8000172[rbp], 1	# i,
.L20:
# mpi_matrix_base.c:53:       for (int i = 0; i < MAT_SIZE; i++) {
	.loc 1 53 7 discriminator 1
	cmp	DWORD PTR -8000172[rbp], 499	# i,
	jle	.L23	#,
.LBE8:
# mpi_matrix_base.c:61:       double start = MPI_Wtime();
	.loc 1 61 22
	call	MPI_Wtime@PLT	#
	movq	rax, xmm0	# tmp212,
	mov	QWORD PTR -8000056[rbp], rax	# start, tmp212
# mpi_matrix_base.c:64:       MPI_Bcast(&b[0][0], MAT_SIZE*MAT_SIZE, MPI_DOUBLE, 0, MPI_COMM_WORLD);
	.loc 1 64 7
	lea	rax, -6000016[rbp]	# tmp213,
	mov	r8d, 1140850688	#,
	mov	ecx, 0	#,
	mov	edx, 1275070475	#,
	mov	esi, 250000	#,
	mov	rdi, rax	#, tmp213
	call	MPI_Bcast@PLT	#
# mpi_matrix_base.c:67:       int rows_per_proc = MAT_SIZE / mpiSize;
	.loc 1 67 36
	mov	ecx, DWORD PTR -8000176[rbp]	# mpiSize.3_12, mpiSize
# mpi_matrix_base.c:67:       int rows_per_proc = MAT_SIZE / mpiSize;
	.loc 1 67 11
	mov	eax, 500	# tmp216,
	cdq
	idiv	ecx	# mpiSize.3_12
	mov	DWORD PTR -8000108[rbp], eax	# rows_per_proc, tmp214
# mpi_matrix_base.c:68:       int rem = MAT_SIZE % mpiSize;
	.loc 1 68 26
	mov	ecx, DWORD PTR -8000176[rbp]	# mpiSize.4_13, mpiSize
# mpi_matrix_base.c:68:       int rem = MAT_SIZE % mpiSize;
	.loc 1 68 11
	mov	eax, 500	# tmp217,
	cdq
	idiv	ecx	# mpiSize.4_13
	mov	DWORD PTR -8000104[rbp], edx	# rem, tmp218
# mpi_matrix_base.c:69:       int offset = 0;
	.loc 1 69 11
	mov	DWORD PTR -8000164[rbp], 0	# offset,
.LBB10:
# mpi_matrix_base.c:70:       for (int p = 0; p < mpiSize; p++) {
	.loc 1 70 16
	mov	DWORD PTR -8000160[rbp], 0	# p,
# mpi_matrix_base.c:70:       for (int p = 0; p < mpiSize; p++) {
	.loc 1 70 7
	jmp	.L24	#
.L25:
.LBB11:
# mpi_matrix_base.c:71:          int rows = rows_per_proc + (p < rem ? 1 : 0);
	.loc 1 71 50 discriminator 3
	mov	eax, DWORD PTR -8000160[rbp]	# tmp220, p
	cmp	eax, DWORD PTR -8000104[rbp]	# tmp220, rem
	setl	al	#, _14
	movzx	edx, al	# _15, _14
# mpi_matrix_base.c:71:          int rows = rows_per_proc + (p < rem ? 1 : 0);
	.loc 1 71 14 discriminator 3
	mov	eax, DWORD PTR -8000108[rbp]	# tmp224, rows_per_proc
	add	eax, edx	# tmp223, _15
	mov	DWORD PTR -8000100[rbp], eax	# rows, tmp223
# mpi_matrix_base.c:72:          sendcounts[p] = rows * MAT_SIZE;     // number of elements
	.loc 1 72 20 discriminator 3
	mov	eax, DWORD PTR -8000160[rbp]	# tmp225, p
	cdqe
	lea	rdx, 0[0+rax*4]	# _17,
	mov	rax, QWORD PTR -8000096[rbp]	# tmp226, sendcounts
	add	rdx, rax	# _18, tmp226
# mpi_matrix_base.c:72:          sendcounts[p] = rows * MAT_SIZE;     // number of elements
	.loc 1 72 31 discriminator 3
	mov	eax, DWORD PTR -8000100[rbp]	# tmp227, rows
	imul	eax, eax, 500	# _19, tmp227,
# mpi_matrix_base.c:72:          sendcounts[p] = rows * MAT_SIZE;     // number of elements
	.loc 1 72 24 discriminator 3
	mov	DWORD PTR [rdx], eax	# *_18, _19
# mpi_matrix_base.c:73:          displs[p]     = offset * MAT_SIZE;   // displacement (in elements)
	.loc 1 73 16 discriminator 3
	mov	eax, DWORD PTR -8000160[rbp]	# tmp228, p
	cdqe
	lea	rdx, 0[0+rax*4]	# _21,
	mov	rax, QWORD PTR -8000088[rbp]	# tmp229, displs
	add	rdx, rax	# _22, tmp229
# mpi_matrix_base.c:73:          displs[p]     = offset * MAT_SIZE;   // displacement (in elements)
	.loc 1 73 33 discriminator 3
	mov	eax, DWORD PTR -8000164[rbp]	# tmp230, offset
	imul	eax, eax, 500	# _23, tmp230,
# mpi_matrix_base.c:73:          displs[p]     = offset * MAT_SIZE;   // displacement (in elements)
	.loc 1 73 24 discriminator 3
	mov	DWORD PTR [rdx], eax	# *_22, _23
# mpi_matrix_base.c:74:          offset += rows;
	.loc 1 74 17 discriminator 3
	mov	eax, DWORD PTR -8000100[rbp]	# tmp231, rows
	add	DWORD PTR -8000164[rbp], eax	# offset, tmp231
.LBE11:
# mpi_matrix_base.c:70:       for (int p = 0; p < mpiSize; p++) {
	.loc 1 70 37 discriminator 3
	add	DWORD PTR -8000160[rbp], 1	# p,
.L24:
# mpi_matrix_base.c:70:       for (int p = 0; p < mpiSize; p++) {
	.loc 1 70 25 discriminator 1
	mov	eax, DWORD PTR -8000176[rbp]	# mpiSize.5_24, mpiSize
# mpi_matrix_base.c:70:       for (int p = 0; p < mpiSize; p++) {
	.loc 1 70 7 discriminator 1
	cmp	DWORD PTR -8000160[rbp], eax	# p, mpiSize.5_24
	jl	.L25	#,
.LBE10:
# mpi_matrix_base.c:76:       myrows = sendcounts[rank] / MAT_SIZE;
	.loc 1 76 26
	mov	eax, DWORD PTR -8000180[rbp]	# rank.6_25, rank
	cdqe
	lea	rdx, 0[0+rax*4]	# _27,
	mov	rax, QWORD PTR -8000096[rbp]	# tmp232, sendcounts
	add	rax, rdx	# _28, _27
	mov	eax, DWORD PTR [rax]	# _29, *_28
# mpi_matrix_base.c:76:       myrows = sendcounts[rank] / MAT_SIZE;
	.loc 1 76 14
	movsx	rdx, eax	# tmp233, _29
	imul	rdx, rdx, 274877907	# tmp234, tmp233,
	shr	rdx, 32	# tmp235,
	sar	edx, 5	# tmp236,
	sar	eax, 31	# tmp237,
	sub	edx, eax	# tmp236, tmp237
	mov	eax, edx	# tmp238, tmp236
	mov	DWORD PTR -8000124[rbp], eax	# myrows, tmp238
# mpi_matrix_base.c:79:       double *A_local = malloc((size_t)myrows * MAT_SIZE * sizeof(double));
	.loc 1 79 32
	mov	eax, DWORD PTR -8000124[rbp]	# tmp239, myrows
	cdqe
# mpi_matrix_base.c:79:       double *A_local = malloc((size_t)myrows * MAT_SIZE * sizeof(double));
	.loc 1 79 25
	imul	rax, rax, 4000	# _31, _30,
	mov	rdi, rax	#, _31
	call	malloc@PLT	#
	mov	QWORD PTR -8000048[rbp], rax	# A_local, tmp240
# mpi_matrix_base.c:80:       double *C_local = calloc((size_t)myrows * MAT_SIZE, sizeof(double));
	.loc 1 80 32
	mov	eax, DWORD PTR -8000124[rbp]	# tmp241, myrows
	cdqe
# mpi_matrix_base.c:80:       double *C_local = calloc((size_t)myrows * MAT_SIZE, sizeof(double));
	.loc 1 80 25
	imul	rax, rax, 500	# _33, _32,
	mov	esi, 8	#,
	mov	rdi, rax	#, _33
	call	calloc@PLT	#
	mov	QWORD PTR -8000040[rbp], rax	# C_local, tmp242
# mpi_matrix_base.c:83:       MPI_Scatterv(&a[0][0], sendcounts, displs, MPI_DOUBLE,
	.loc 1 83 7
	mov	eax, DWORD PTR -8000124[rbp]	# tmp243, myrows
	imul	edi, eax, 500	# _34, tmp243,
	mov	rcx, QWORD PTR -8000048[rbp]	# tmp244, A_local
	mov	rdx, QWORD PTR -8000088[rbp]	# tmp245, displs
	mov	rsi, QWORD PTR -8000096[rbp]	# tmp246, sendcounts
	lea	rax, -8000016[rbp]	# tmp247,
	sub	rsp, 8	#,
	push	1140850688	#
	push	0	#
	push	1275070475	#
	mov	r9d, edi	#, _34
	mov	r8, rcx	#, tmp244
	mov	ecx, 1275070475	#,
	mov	rdi, rax	#, tmp247
	call	MPI_Scatterv@PLT	#
	add	rsp, 32	#,
.LBB12:
# mpi_matrix_base.c:88:       for (int i = 0; i < myrows; i++) {
	.loc 1 88 16
	mov	DWORD PTR -8000156[rbp], 0	# i,
# mpi_matrix_base.c:88:       for (int i = 0; i < myrows; i++) {
	.loc 1 88 7
	jmp	.L26	#
.L31:
.LBB13:
# mpi_matrix_base.c:89:          for (int k = 0; k < MAT_SIZE; k++) {
	.loc 1 89 19
	mov	DWORD PTR -8000152[rbp], 0	# k,
# mpi_matrix_base.c:89:          for (int k = 0; k < MAT_SIZE; k++) {
	.loc 1 89 10
	jmp	.L27	#
.L30:
.LBB14:
# mpi_matrix_base.c:90:                double a_k = A_local[i*MAT_SIZE + k];
	.loc 1 90 38
	mov	eax, DWORD PTR -8000156[rbp]	# tmp248, i
	imul	edx, eax, 500	# _35, tmp248,
# mpi_matrix_base.c:90:                double a_k = A_local[i*MAT_SIZE + k];
	.loc 1 90 48
	mov	eax, DWORD PTR -8000152[rbp]	# tmp249, k
	add	eax, edx	# _36, _35
	cdqe
# mpi_matrix_base.c:90:                double a_k = A_local[i*MAT_SIZE + k];
	.loc 1 90 36
	lea	rdx, 0[0+rax*8]	# _38,
	mov	rax, QWORD PTR -8000048[rbp]	# tmp250, A_local
	add	rax, rdx	# _39, _38
# mpi_matrix_base.c:90:                double a_k = A_local[i*MAT_SIZE + k];
	.loc 1 90 23
	movsd	xmm0, QWORD PTR [rax]	# tmp251, *_39
	movsd	QWORD PTR -8000024[rbp], xmm0	# a_k, tmp251
.LBB15:
# mpi_matrix_base.c:91:                for (int j = 0; j < MAT_SIZE; j++) {
	.loc 1 91 25
	mov	DWORD PTR -8000148[rbp], 0	# j,
# mpi_matrix_base.c:91:                for (int j = 0; j < MAT_SIZE; j++) {
	.loc 1 91 16
	jmp	.L28	#
.L29:
# mpi_matrix_base.c:92:                   C_local[i*MAT_SIZE + j] += a_k * b[k][j];
	.loc 1 92 43 discriminator 3
	mov	eax, DWORD PTR -8000156[rbp]	# tmp252, i
	imul	edx, eax, 500	# _40, tmp252,
	mov	eax, DWORD PTR -8000148[rbp]	# tmp253, j
	add	eax, edx	# _41, _40
	cdqe
	lea	rdx, 0[0+rax*8]	# _43,
	mov	rax, QWORD PTR -8000040[rbp]	# tmp254, C_local
	add	rax, rdx	# _44, _43
	movsd	xmm1, QWORD PTR [rax]	# _45, *_44
# mpi_matrix_base.c:92:                   C_local[i*MAT_SIZE + j] += a_k * b[k][j];
	.loc 1 92 56 discriminator 3
	mov	eax, DWORD PTR -8000148[rbp]	# tmp256, j
	cdqe
	mov	edx, DWORD PTR -8000152[rbp]	# tmp258, k
	movsx	rdx, edx	# tmp257, tmp258
	imul	rdx, rdx, 500	# tmp259, tmp257,
	add	rax, rdx	# tmp260, tmp259
	movsd	xmm0, QWORD PTR -6000016[rbp+rax*8]	# _46, b
# mpi_matrix_base.c:92:                   C_local[i*MAT_SIZE + j] += a_k * b[k][j];
	.loc 1 92 50 discriminator 3
	mulsd	xmm0, QWORD PTR -8000024[rbp]	# _47, a_k
# mpi_matrix_base.c:92:                   C_local[i*MAT_SIZE + j] += a_k * b[k][j];
	.loc 1 92 43 discriminator 3
	mov	eax, DWORD PTR -8000156[rbp]	# tmp261, i
	imul	edx, eax, 500	# _48, tmp261,
	mov	eax, DWORD PTR -8000148[rbp]	# tmp262, j
	add	eax, edx	# _49, _48
	cdqe
	lea	rdx, 0[0+rax*8]	# _51,
	mov	rax, QWORD PTR -8000040[rbp]	# tmp263, C_local
	add	rax, rdx	# _52, _51
	addsd	xmm0, xmm1	# _53, _45
	movsd	QWORD PTR [rax], xmm0	# *_52, _53
# mpi_matrix_base.c:91:                for (int j = 0; j < MAT_SIZE; j++) {
	.loc 1 91 47 discriminator 3
	add	DWORD PTR -8000148[rbp], 1	# j,
.L28:
# mpi_matrix_base.c:91:                for (int j = 0; j < MAT_SIZE; j++) {
	.loc 1 91 16 discriminator 1
	cmp	DWORD PTR -8000148[rbp], 499	# j,
	jle	.L29	#,
.LBE15:
.LBE14:
# mpi_matrix_base.c:89:          for (int k = 0; k < MAT_SIZE; k++) {
	.loc 1 89 41 discriminator 2
	add	DWORD PTR -8000152[rbp], 1	# k,
.L27:
# mpi_matrix_base.c:89:          for (int k = 0; k < MAT_SIZE; k++) {
	.loc 1 89 10 discriminator 1
	cmp	DWORD PTR -8000152[rbp], 499	# k,
	jle	.L30	#,
.LBE13:
# mpi_matrix_base.c:88:       for (int i = 0; i < myrows; i++) {
	.loc 1 88 36 discriminator 2
	add	DWORD PTR -8000156[rbp], 1	# i,
.L26:
# mpi_matrix_base.c:88:       for (int i = 0; i < myrows; i++) {
	.loc 1 88 7 discriminator 1
	mov	eax, DWORD PTR -8000156[rbp]	# tmp264, i
	cmp	eax, DWORD PTR -8000124[rbp]	# tmp264, myrows
	jl	.L31	#,
.LBE12:
# mpi_matrix_base.c:97:       MPI_Barrier(MPI_COMM_WORLD);
	.loc 1 97 7
	mov	edi, 1140850688	#,
	call	MPI_Barrier@PLT	#
# mpi_matrix_base.c:100:       MPI_Gatherv(C_local, myrows*MAT_SIZE, MPI_DOUBLE,
	.loc 1 100 7
	mov	eax, DWORD PTR -8000124[rbp]	# tmp265, myrows
	imul	esi, eax, 500	# _54, tmp265,
	mov	rdi, QWORD PTR -8000088[rbp]	# tmp266, displs
	mov	rcx, QWORD PTR -8000096[rbp]	# tmp267, sendcounts
	lea	rdx, -4000016[rbp]	# tmp268,
	mov	rax, QWORD PTR -8000040[rbp]	# tmp269, C_local
	sub	rsp, 8	#,
	push	1140850688	#
	push	0	#
	push	1275070475	#
	mov	r9, rdi	#, tmp266
	mov	r8, rcx	#, tmp267
	mov	rcx, rdx	#, tmp268
	mov	edx, 1275070475	#,
	mov	rdi, rax	#, tmp269
	call	MPI_Gatherv@PLT	#
	add	rsp, 32	#,
# mpi_matrix_base.c:104:       free(A_local);
	.loc 1 104 7
	mov	rax, QWORD PTR -8000048[rbp]	# tmp270, A_local
	mov	rdi, rax	#, tmp270
	call	free@PLT	#
# mpi_matrix_base.c:105:       free(C_local);
	.loc 1 105 7
	mov	rax, QWORD PTR -8000040[rbp]	# tmp271, C_local
	mov	rdi, rax	#, tmp271
	call	free@PLT	#
# mpi_matrix_base.c:107:       MPI_Barrier(MPI_COMM_WORLD);
	.loc 1 107 7
	mov	edi, 1140850688	#,
	call	MPI_Barrier@PLT	#
# mpi_matrix_base.c:110:       double finish = MPI_Wtime();
	.loc 1 110 23
	call	MPI_Wtime@PLT	#
	movq	rax, xmm0	# tmp272,
	mov	QWORD PTR -8000032[rbp], rax	# finish, tmp272
# mpi_matrix_base.c:112:       printf("Done in %f seconds.\n", finish - start);
	.loc 1 112 7
	movsd	xmm0, QWORD PTR -8000032[rbp]	# tmp273, finish
	subsd	xmm0, QWORD PTR -8000056[rbp]	# _55, start
	lea	rdi, .LC1[rip]	#,
	mov	eax, 1	#,
	call	printf@PLT	#
# mpi_matrix_base.c:115:       start = MPI_Wtime();
	.loc 1 115 15
	call	MPI_Wtime@PLT	#
	movq	rax, xmm0	# tmp274,
	mov	QWORD PTR -8000056[rbp], rax	# start, tmp274
# mpi_matrix_base.c:117:       brute_force_matmul(a, b, bfRes);
	.loc 1 117 7
	lea	rdx, -2000016[rbp]	# tmp275,
	lea	rcx, -6000016[rbp]	# tmp276,
	lea	rax, -8000016[rbp]	# tmp277,
	mov	rsi, rcx	#, tmp276
	mov	rdi, rax	#, tmp277
	call	brute_force_matmul	#
# mpi_matrix_base.c:119:       finish = MPI_Wtime();
	.loc 1 119 16
	call	MPI_Wtime@PLT	#
	movq	rax, xmm0	# tmp278,
	mov	QWORD PTR -8000032[rbp], rax	# finish, tmp278
# mpi_matrix_base.c:120:       printf("Brute force done in %f seconds.\n", finish - start);
	.loc 1 120 7
	movsd	xmm0, QWORD PTR -8000032[rbp]	# tmp279, finish
	subsd	xmm0, QWORD PTR -8000056[rbp]	# _56, start
	lea	rdi, .LC2[rip]	#,
	mov	eax, 1	#,
	call	printf@PLT	#
# mpi_matrix_base.c:122:       if (!checkRes(bfRes, c)) {
	.loc 1 122 12
	lea	rdx, -4000016[rbp]	# tmp280,
	lea	rax, -2000016[rbp]	# tmp281,
	mov	rsi, rdx	#, tmp280
	mov	rdi, rax	#, tmp281
	call	checkRes	#
# mpi_matrix_base.c:122:       if (!checkRes(bfRes, c)) {
	.loc 1 122 10
	test	eax, eax	# _57
	jne	.L32	#,
# mpi_matrix_base.c:123:          printf("ERROR: mismatch!\n");
	.loc 1 123 10
	lea	rdi, .LC3[rip]	#,
	call	puts@PLT	#
	jmp	.L33	#
.L32:
# mpi_matrix_base.c:125:          printf("Result is correct.\n");
	.loc 1 125 10
	lea	rdi, .LC4[rip]	#,
	call	puts@PLT	#
	jmp	.L33	#
.L19:
.LBE7:
.LBB16:
# mpi_matrix_base.c:131:       MPI_Bcast(&b[0][0], MAT_SIZE*MAT_SIZE, MPI_DOUBLE, 0, MPI_COMM_WORLD);
	.loc 1 131 7
	lea	rax, -6000016[rbp]	# tmp282,
	mov	r8d, 1140850688	#,
	mov	ecx, 0	#,
	mov	edx, 1275070475	#,
	mov	esi, 250000	#,
	mov	rdi, rax	#, tmp282
	call	MPI_Bcast@PLT	#
# mpi_matrix_base.c:133:       int rows_per_proc = MAT_SIZE / mpiSize;
	.loc 1 133 36
	mov	esi, DWORD PTR -8000176[rbp]	# mpiSize.7_58, mpiSize
# mpi_matrix_base.c:133:       int rows_per_proc = MAT_SIZE / mpiSize;
	.loc 1 133 11
	mov	eax, 500	# tmp285,
	cdq
	idiv	esi	# mpiSize.7_58
	mov	DWORD PTR -8000120[rbp], eax	# rows_per_proc, tmp283
# mpi_matrix_base.c:134:       int rem = MAT_SIZE % mpiSize;
	.loc 1 134 26
	mov	ecx, DWORD PTR -8000176[rbp]	# mpiSize.8_59, mpiSize
# mpi_matrix_base.c:134:       int rem = MAT_SIZE % mpiSize;
	.loc 1 134 11
	mov	eax, 500	# tmp286,
	cdq
	idiv	ecx	# mpiSize.8_59
	mov	DWORD PTR -8000116[rbp], edx	# rem, tmp287
# mpi_matrix_base.c:135:       int offset = 0;
	.loc 1 135 11
	mov	DWORD PTR -8000144[rbp], 0	# offset,
.LBB17:
# mpi_matrix_base.c:136:       for (int p = 0; p < mpiSize; p++) {
	.loc 1 136 16
	mov	DWORD PTR -8000140[rbp], 0	# p,
# mpi_matrix_base.c:136:       for (int p = 0; p < mpiSize; p++) {
	.loc 1 136 7
	jmp	.L34	#
.L35:
.LBB18:
# mpi_matrix_base.c:137:          int rows = rows_per_proc + (p < rem ? 1 : 0);
	.loc 1 137 50 discriminator 3
	mov	eax, DWORD PTR -8000140[rbp]	# tmp289, p
	cmp	eax, DWORD PTR -8000116[rbp]	# tmp289, rem
	setl	al	#, _60
	movzx	edx, al	# _61, _60
# mpi_matrix_base.c:137:          int rows = rows_per_proc + (p < rem ? 1 : 0);
	.loc 1 137 14 discriminator 3
	mov	eax, DWORD PTR -8000120[rbp]	# tmp293, rows_per_proc
	add	eax, edx	# tmp292, _61
	mov	DWORD PTR -8000112[rbp], eax	# rows, tmp292
# mpi_matrix_base.c:138:          sendcounts[p] = rows * MAT_SIZE;     // number of elements
	.loc 1 138 20 discriminator 3
	mov	eax, DWORD PTR -8000140[rbp]	# tmp294, p
	cdqe
	lea	rdx, 0[0+rax*4]	# _63,
	mov	rax, QWORD PTR -8000096[rbp]	# tmp295, sendcounts
	add	rdx, rax	# _64, tmp295
# mpi_matrix_base.c:138:          sendcounts[p] = rows * MAT_SIZE;     // number of elements
	.loc 1 138 31 discriminator 3
	mov	eax, DWORD PTR -8000112[rbp]	# tmp296, rows
	imul	eax, eax, 500	# _65, tmp296,
# mpi_matrix_base.c:138:          sendcounts[p] = rows * MAT_SIZE;     // number of elements
	.loc 1 138 24 discriminator 3
	mov	DWORD PTR [rdx], eax	# *_64, _65
# mpi_matrix_base.c:139:          displs[p]     = offset * MAT_SIZE;   // displacement (in elements)
	.loc 1 139 16 discriminator 3
	mov	eax, DWORD PTR -8000140[rbp]	# tmp297, p
	cdqe
	lea	rdx, 0[0+rax*4]	# _67,
	mov	rax, QWORD PTR -8000088[rbp]	# tmp298, displs
	add	rdx, rax	# _68, tmp298
# mpi_matrix_base.c:139:          displs[p]     = offset * MAT_SIZE;   // displacement (in elements)
	.loc 1 139 33 discriminator 3
	mov	eax, DWORD PTR -8000144[rbp]	# tmp299, offset
	imul	eax, eax, 500	# _69, tmp299,
# mpi_matrix_base.c:139:          displs[p]     = offset * MAT_SIZE;   // displacement (in elements)
	.loc 1 139 24 discriminator 3
	mov	DWORD PTR [rdx], eax	# *_68, _69
# mpi_matrix_base.c:140:          offset += rows;
	.loc 1 140 17 discriminator 3
	mov	eax, DWORD PTR -8000112[rbp]	# tmp300, rows
	add	DWORD PTR -8000144[rbp], eax	# offset, tmp300
.LBE18:
# mpi_matrix_base.c:136:       for (int p = 0; p < mpiSize; p++) {
	.loc 1 136 37 discriminator 3
	add	DWORD PTR -8000140[rbp], 1	# p,
.L34:
# mpi_matrix_base.c:136:       for (int p = 0; p < mpiSize; p++) {
	.loc 1 136 25 discriminator 1
	mov	eax, DWORD PTR -8000176[rbp]	# mpiSize.9_70, mpiSize
# mpi_matrix_base.c:136:       for (int p = 0; p < mpiSize; p++) {
	.loc 1 136 7 discriminator 1
	cmp	DWORD PTR -8000140[rbp], eax	# p, mpiSize.9_70
	jl	.L35	#,
.LBE17:
# mpi_matrix_base.c:142:       myrows = sendcounts[rank] / MAT_SIZE;
	.loc 1 142 26
	mov	eax, DWORD PTR -8000180[rbp]	# rank.10_71, rank
	cdqe
	lea	rdx, 0[0+rax*4]	# _73,
	mov	rax, QWORD PTR -8000096[rbp]	# tmp301, sendcounts
	add	rax, rdx	# _74, _73
	mov	eax, DWORD PTR [rax]	# _75, *_74
# mpi_matrix_base.c:142:       myrows = sendcounts[rank] / MAT_SIZE;
	.loc 1 142 14
	movsx	rdx, eax	# tmp302, _75
	imul	rdx, rdx, 274877907	# tmp303, tmp302,
	shr	rdx, 32	# tmp304,
	sar	edx, 5	# tmp305,
	sar	eax, 31	# tmp306,
	sub	edx, eax	# tmp305, tmp306
	mov	eax, edx	# tmp307, tmp305
	mov	DWORD PTR -8000124[rbp], eax	# myrows, tmp307
# mpi_matrix_base.c:145:       double *A_local = malloc((size_t)myrows * MAT_SIZE * sizeof(double));
	.loc 1 145 32
	mov	eax, DWORD PTR -8000124[rbp]	# tmp308, myrows
	cdqe
# mpi_matrix_base.c:145:       double *A_local = malloc((size_t)myrows * MAT_SIZE * sizeof(double));
	.loc 1 145 25
	imul	rax, rax, 4000	# _77, _76,
	mov	rdi, rax	#, _77
	call	malloc@PLT	#
	mov	QWORD PTR -8000080[rbp], rax	# A_local, tmp309
# mpi_matrix_base.c:146:       double *C_local = calloc((size_t)myrows * MAT_SIZE, sizeof(double));
	.loc 1 146 32
	mov	eax, DWORD PTR -8000124[rbp]	# tmp310, myrows
	cdqe
# mpi_matrix_base.c:146:       double *C_local = calloc((size_t)myrows * MAT_SIZE, sizeof(double));
	.loc 1 146 25
	imul	rax, rax, 500	# _79, _78,
	mov	esi, 8	#,
	mov	rdi, rax	#, _79
	call	calloc@PLT	#
	mov	QWORD PTR -8000072[rbp], rax	# C_local, tmp311
# mpi_matrix_base.c:149:       MPI_Scatterv(&a[0][0], sendcounts, displs, MPI_DOUBLE,
	.loc 1 149 7
	mov	eax, DWORD PTR -8000124[rbp]	# tmp312, myrows
	imul	edi, eax, 500	# _80, tmp312,
	mov	rcx, QWORD PTR -8000080[rbp]	# tmp313, A_local
	mov	rdx, QWORD PTR -8000088[rbp]	# tmp314, displs
	mov	rsi, QWORD PTR -8000096[rbp]	# tmp315, sendcounts
	lea	rax, -8000016[rbp]	# tmp316,
	sub	rsp, 8	#,
	push	1140850688	#
	push	0	#
	push	1275070475	#
	mov	r9d, edi	#, _80
	mov	r8, rcx	#, tmp313
	mov	ecx, 1275070475	#,
	mov	rdi, rax	#, tmp316
	call	MPI_Scatterv@PLT	#
	add	rsp, 32	#,
.LBB19:
# mpi_matrix_base.c:154:       for (int i = 0; i < myrows; i++) {
	.loc 1 154 16
	mov	DWORD PTR -8000136[rbp], 0	# i,
# mpi_matrix_base.c:154:       for (int i = 0; i < myrows; i++) {
	.loc 1 154 7
	jmp	.L36	#
.L41:
.LBB20:
# mpi_matrix_base.c:155:          for (int k = 0; k < MAT_SIZE; k++) {
	.loc 1 155 19
	mov	DWORD PTR -8000132[rbp], 0	# k,
# mpi_matrix_base.c:155:          for (int k = 0; k < MAT_SIZE; k++) {
	.loc 1 155 10
	jmp	.L37	#
.L40:
.LBB21:
# mpi_matrix_base.c:156:             double aik = A_local[i*MAT_SIZE + k];
	.loc 1 156 35
	mov	eax, DWORD PTR -8000136[rbp]	# tmp317, i
	imul	edx, eax, 500	# _81, tmp317,
# mpi_matrix_base.c:156:             double aik = A_local[i*MAT_SIZE + k];
	.loc 1 156 45
	mov	eax, DWORD PTR -8000132[rbp]	# tmp318, k
	add	eax, edx	# _82, _81
	cdqe
# mpi_matrix_base.c:156:             double aik = A_local[i*MAT_SIZE + k];
	.loc 1 156 33
	lea	rdx, 0[0+rax*8]	# _84,
	mov	rax, QWORD PTR -8000080[rbp]	# tmp319, A_local
	add	rax, rdx	# _85, _84
# mpi_matrix_base.c:156:             double aik = A_local[i*MAT_SIZE + k];
	.loc 1 156 20
	movsd	xmm0, QWORD PTR [rax]	# tmp320, *_85
	movsd	QWORD PTR -8000064[rbp], xmm0	# aik, tmp320
.LBB22:
# mpi_matrix_base.c:157:             for (int j = 0; j < MAT_SIZE; j++) {
	.loc 1 157 22
	mov	DWORD PTR -8000128[rbp], 0	# j,
# mpi_matrix_base.c:157:             for (int j = 0; j < MAT_SIZE; j++) {
	.loc 1 157 13
	jmp	.L38	#
.L39:
# mpi_matrix_base.c:158:                C_local[i*MAT_SIZE + j] += aik * b[k][j];
	.loc 1 158 40 discriminator 3
	mov	eax, DWORD PTR -8000136[rbp]	# tmp321, i
	imul	edx, eax, 500	# _86, tmp321,
	mov	eax, DWORD PTR -8000128[rbp]	# tmp322, j
	add	eax, edx	# _87, _86
	cdqe
	lea	rdx, 0[0+rax*8]	# _89,
	mov	rax, QWORD PTR -8000072[rbp]	# tmp323, C_local
	add	rax, rdx	# _90, _89
	movsd	xmm1, QWORD PTR [rax]	# _91, *_90
# mpi_matrix_base.c:158:                C_local[i*MAT_SIZE + j] += aik * b[k][j];
	.loc 1 158 53 discriminator 3
	mov	eax, DWORD PTR -8000128[rbp]	# tmp325, j
	cdqe
	mov	edx, DWORD PTR -8000132[rbp]	# tmp327, k
	movsx	rdx, edx	# tmp326, tmp327
	imul	rdx, rdx, 500	# tmp328, tmp326,
	add	rax, rdx	# tmp329, tmp328
	movsd	xmm0, QWORD PTR -6000016[rbp+rax*8]	# _92, b
# mpi_matrix_base.c:158:                C_local[i*MAT_SIZE + j] += aik * b[k][j];
	.loc 1 158 47 discriminator 3
	mulsd	xmm0, QWORD PTR -8000064[rbp]	# _93, aik
# mpi_matrix_base.c:158:                C_local[i*MAT_SIZE + j] += aik * b[k][j];
	.loc 1 158 40 discriminator 3
	mov	eax, DWORD PTR -8000136[rbp]	# tmp330, i
	imul	edx, eax, 500	# _94, tmp330,
	mov	eax, DWORD PTR -8000128[rbp]	# tmp331, j
	add	eax, edx	# _95, _94
	cdqe
	lea	rdx, 0[0+rax*8]	# _97,
	mov	rax, QWORD PTR -8000072[rbp]	# tmp332, C_local
	add	rax, rdx	# _98, _97
	addsd	xmm0, xmm1	# _99, _91
	movsd	QWORD PTR [rax], xmm0	# *_98, _99
# mpi_matrix_base.c:157:             for (int j = 0; j < MAT_SIZE; j++) {
	.loc 1 157 44 discriminator 3
	add	DWORD PTR -8000128[rbp], 1	# j,
.L38:
# mpi_matrix_base.c:157:             for (int j = 0; j < MAT_SIZE; j++) {
	.loc 1 157 13 discriminator 1
	cmp	DWORD PTR -8000128[rbp], 499	# j,
	jle	.L39	#,
.LBE22:
.LBE21:
# mpi_matrix_base.c:155:          for (int k = 0; k < MAT_SIZE; k++) {
	.loc 1 155 41 discriminator 2
	add	DWORD PTR -8000132[rbp], 1	# k,
.L37:
# mpi_matrix_base.c:155:          for (int k = 0; k < MAT_SIZE; k++) {
	.loc 1 155 10 discriminator 1
	cmp	DWORD PTR -8000132[rbp], 499	# k,
	jle	.L40	#,
.LBE20:
# mpi_matrix_base.c:154:       for (int i = 0; i < myrows; i++) {
	.loc 1 154 36 discriminator 2
	add	DWORD PTR -8000136[rbp], 1	# i,
.L36:
# mpi_matrix_base.c:154:       for (int i = 0; i < myrows; i++) {
	.loc 1 154 7 discriminator 1
	mov	eax, DWORD PTR -8000136[rbp]	# tmp333, i
	cmp	eax, DWORD PTR -8000124[rbp]	# tmp333, myrows
	jl	.L41	#,
.LBE19:
# mpi_matrix_base.c:163:       MPI_Barrier(MPI_COMM_WORLD);
	.loc 1 163 7
	mov	edi, 1140850688	#,
	call	MPI_Barrier@PLT	#
# mpi_matrix_base.c:165:       MPI_Gatherv(C_local, myrows*MAT_SIZE, MPI_DOUBLE,
	.loc 1 165 7
	mov	eax, DWORD PTR -8000124[rbp]	# tmp334, myrows
	imul	esi, eax, 500	# _100, tmp334,
	mov	rdi, QWORD PTR -8000088[rbp]	# tmp335, displs
	mov	rcx, QWORD PTR -8000096[rbp]	# tmp336, sendcounts
	lea	rdx, -4000016[rbp]	# tmp337,
	mov	rax, QWORD PTR -8000072[rbp]	# tmp338, C_local
	sub	rsp, 8	#,
	push	1140850688	#
	push	0	#
	push	1275070475	#
	mov	r9, rdi	#, tmp335
	mov	r8, rcx	#, tmp336
	mov	rcx, rdx	#, tmp337
	mov	edx, 1275070475	#,
	mov	rdi, rax	#, tmp338
	call	MPI_Gatherv@PLT	#
	add	rsp, 32	#,
# mpi_matrix_base.c:169:       free(A_local);
	.loc 1 169 7
	mov	rax, QWORD PTR -8000080[rbp]	# tmp339, A_local
	mov	rdi, rax	#, tmp339
	call	free@PLT	#
# mpi_matrix_base.c:170:       free(C_local);
	.loc 1 170 7
	mov	rax, QWORD PTR -8000072[rbp]	# tmp340, C_local
	mov	rdi, rax	#, tmp340
	call	free@PLT	#
# mpi_matrix_base.c:172:       MPI_Barrier(MPI_COMM_WORLD);
	.loc 1 172 7
	mov	edi, 1140850688	#,
	call	MPI_Barrier@PLT	#
.L33:
.LBE16:
# mpi_matrix_base.c:175:    free(sendcounts);
	.loc 1 175 4
	mov	rax, QWORD PTR -8000096[rbp]	# tmp341, sendcounts
	mov	rdi, rax	#, tmp341
	call	free@PLT	#
# mpi_matrix_base.c:176:    free(displs);
	.loc 1 176 4
	mov	rax, QWORD PTR -8000088[rbp]	# tmp342, displs
	mov	rdi, rax	#, tmp342
	call	free@PLT	#
# mpi_matrix_base.c:179:    MPI_Finalize();
	.loc 1 179 4
	call	MPI_Finalize@PLT	#
# mpi_matrix_base.c:180:    return 0;
	.loc 1 180 11
	mov	eax, 0	# _215,
# mpi_matrix_base.c:181: }
	.loc 1 181 1
	mov	rcx, QWORD PTR -8[rbp]	# tmp345, D.11035
	xor	rcx, QWORD PTR fs:40	# tmp345, MEM[(<address-space-1> long unsigned int *)40B]
	je	.L43	#,
	call	__stack_chk_fail@PLT	#
.L43:
	leave	
	.cfi_def_cfa 7, 8
	ret	
	.cfi_endproc
.LFE8:
	.size	main, .-main
.Letext0:
	.file 2 "/usr/include/x86_64-linux-gnu/bits/types.h"
	.file 3 "/home/haibin/intel/oneapi/mpi/2021.15/include/mpi.h"
	.file 4 "/usr/lib/gcc/x86_64-linux-gnu/9/include/stddef.h"
	.file 5 "/usr/include/x86_64-linux-gnu/bits/types/struct_FILE.h"
	.file 6 "/usr/include/x86_64-linux-gnu/bits/types/FILE.h"
	.file 7 "/usr/include/stdio.h"
	.file 8 "/usr/include/x86_64-linux-gnu/bits/sys_errlist.h"
	.section	.note.GNU-stack,"",@progbits
	.section	.note.gnu.property,"a"
	.align 8
	.long	 1f - 0f
	.long	 4f - 1f
	.long	 5
0:
	.string	 "GNU"
1:
	.align 8
	.long	 0xc0000002
	.long	 3f - 2f
2:
	.long	 0x3
3:
	.align 8
4:
